(dp1
S'output'
p2
S'missing "pass" in view'
p3
sS'layer'
p4
S'ParserContainer'
p5
sS'code'
p6
S'response.write(\'<!DOCTYPE html>\\n<!--[if (gt IE 9)|!(IE)]><!--> <html class="no-js" lang="\', escape=False)\nresponse.write(T.accepted_language or \'en\')\nresponse.write(\'"> <!--<![endif]-->\\n  <head>\\n    <meta charset="utf-8">\\n    <!-- www.phpied.com/conditional-comments-block-downloads/ -->\\n    <!-- Always force latest IE rendering engine\\n         (even in intranet) & Chrome Frame\\n         Remove this if you use the .htaccess -->\\n    <meta http-equiv="X-UA-Compatible" content="IE=edge\', escape=False)\nresponse.write(not request.is_local and \',chrome=1\' or \'\')\nresponse.write(\'">\\n    <!--  Mobile Viewport Fix\\n          j.mp/mobileviewport & davidbcalhoun.com/2010/viewport-metatag\\n          device-width: Occupy full width of the screen in its current orientation\\n          initial-scale = 1.0 retains dimensions instead of zooming out if page height > device height\\n          user-scalable = yes allows the user to zoom in -->\\n    <meta name="viewport" content="width=device-width, initial-scale=1.0">\\n    <title>\', escape=False)\nresponse.write(response.title or request.application)\nresponse.write(\'</title>\\n    <!-- http://dev.w3.org/html5/markup/meta.name.html -->\\n    <meta name="application-name" content="\', escape=False)\nresponse.write(request.application)\nresponse.write(\'">\\n    <!-- Speaking of Google, don\\\'t forget to set your site up:\\n         http://google.com/webmasters -->\\n    <meta name="google-site-verification" content="">\\n    <!-- include stylesheets -->\\n    <link rel="stylesheet" href="https://cdnjs.cloudflare.com/ajax/libs/font-awesome/4.7.0/css/font-awesome.min.css"/>\\n    <link rel="stylesheet" href="\', escape=False)\nresponse.write(URL(\'static\',\'css/bootstrap.min.css\'))\nresponse.write(\'"/>\\n    <link rel="stylesheet" href="\', escape=False)\nresponse.write(URL(\'static\',\'css/web2py-bootstrap4.css\'))\nresponse.write(\'"/>\\n    <link rel="shortcut icon" href="\', escape=False)\nresponse.write(URL(\'static\',\'images/favicon2.ico\'))\nresponse.write(\'" type="image/x-icon">\\n    <link rel="apple-touch-icon" href="\', escape=False)\nresponse.write(URL(\'static\',\'images/favicon2.png\'))\nresponse.write(\'">\\n    <!-- All JavaScript at the bottom, except for Modernizr which enables\\n         HTML5 elements & feature detects -->\\n    <script src="\', escape=False)\nresponse.write(URL(\'static\',\'js/modernizr-2.8.3.min.js\'))\nresponse.write(\'"></script>\\n    <!-- Favicons -->\\n    \', escape=False)\nresponse.write(\'<script type="text/javascript"><!--\\n    // These variables are used by the web2py_ajax_init function in web2py_ajax.js (which is loaded below).\\n    \', escape=False)\nresponse.write(ASSIGNJS(\nw2p_ajax_confirm_message = T(\'Are you sure you want to delete this object?\'),\nw2p_ajax_disable_with_message = T(\'Working...\'),\nw2p_ajax_date_format = T(\'%Y-%m-%d\'),\nw2p_ajax_datetime_format = T(\'%Y-%m-%d %H:%M:%S\'),\najax_error_500 = T.M(\'An error occured, please [[reload %s]] the page\') % URL(args=request.args, vars=request.get_vars)\n))\nresponse.write(\'\\n    //--></script>\\n\', escape=False)\nresponse.files.insert(0,URL(\'static\',\'js/jquery.js\'))\nresponse.files.insert(1,URL(\'static\',\'css/calendar.css\'))\nresponse.files.insert(2,URL(\'static\',\'js/calendar.js\'))\nresponse.files.insert(3,URL(\'static\',\'js/web2py.js\'))\nresponse.include_meta()\nresponse.include_files()\nresponse.write(\'\\n\', escape=False)\nresponse.write(\' <!-- this includes jquery.js, calendar.js/.css and web2py.js -->\\n    \', escape=False)\nresponse.write(\'\\n  </head>\\n  <body>\\n    <style  type="text/css">\\n            @media print{\\n            .btn{\\n            display: none;\\n            }\\n            #noprint { display:none; } \\n            a:link{font:15px "verdana"; color:#8B4513; text-decoration:none;}\\n\\n            a:hover{font:20px "verdana"; color:black; text-decoration:underline;}\\n            }\\n    </style>\\n    <div class="w2p_flash alert alert-dismissable">\', escape=False)\nresponse.write(response.flash or \'\')\nresponse.write(\'</div>\\n    <!-- Navbar ======================================= -->\\n    <nav class="navbar navbar-light navbar-expand-md bg-faded justify-content-center">\\n       <a href="#" class="navbar-brand d-flex w-50 mr-auto">Overcoming</a>\\n       <button class="navbar-toggler" type="button" data-toggle="collapse" data-target="#navbarNavDropdown" aria-controls="navbarNavDropdown" aria-expanded="false" aria-label="Toggle navigation">\\n         <span class="navbar-toggler-icon"></span>\\n       </button>\\n       <div class="navbar-collapse collapse w-100" id="navbarNavDropdown">\\n         <ul class="navbar-nav w-100 justify-content-center">\\n          \', escape=False)\nfor _item in response.menu or []:\n    response.write(\'\\n          \', escape=False)\n    if len(_item)<4 or not _item[3]:\n        response.write(\'\\n          <li class="nav-item \', escape=False)\n        if _item[1]:\n            response.write(\'active\', escape=False)\n            pass\n        response.write(\'">\\n            <a class="nav-link" href="\', escape=False)\n        response.write(_item[2])\n        response.write(\'">\', escape=False)\n        response.write(_item[0])\n        response.write(\'</a>\\n          </li>\\n          \', escape=False)\n    else:\n        response.write(\'\\n          <li class="nav-item dropdown">\\n            <a class="nav-link dropdown-toggle" href="\', escape=False)\n        response.write(_item[2])\n        response.write(\'" data-toggle="dropdown" aria-haspopup="true" aria-expanded="false">\', escape=False)\n        response.write(_item[0])\n        response.write(\'</a>\\n            <div class="dropdown-menu">\\n              \', escape=False)\n        for _subitem in _item[3]:\n            response.write(\'\\n              <a class="dropdown-item" href="\', escape=False)\n            response.write(_subitem[2])\n            response.write(\'">\', escape=False)\n            response.write(_subitem[0])\n            response.write(\'</a>\\n              \', escape=False)\n            pass\n        response.write(\'\\n            </div>\\n          </li>\\n          \', escape=False)\n        pass\n    response.write(\'\\n          \', escape=False)\n    pass\nresponse.write(\'\\n        </ul>\\n         \\n        \', escape=False)\nif \'auth\' in globals():\n    response.write(\'\\n        <ul class="nav navbar-nav ml-auto w-100 justify-content-end">\\n          <li class="nav-item dropdown">\\n            <a class="nav-link dropdown-toggle" href="#" data-toggle="dropdown" aria-haspopup="true" aria-expanded="false">\\n              \', escape=False)\n    if auth.user:\n        response.write(auth.user.first_name)\n    else:\n        response.write(\'LOGIN\', escape=False)\n        pass\n    response.write(\'\\n            </a>\\n            <div class="dropdown-menu dropdown-menu-right">\\n              \', escape=False)\n    if auth.user:\n        response.write(\'\\n              <a class="dropdown-item" href="\', escape=False)\n        response.write(URL(\'default\',\'user/profile\'))\n        response.write(\'">\', escape=False)\n        response.write(T(\'Profile\'))\n        response.write(\'</a>\\n              \', escape=False)\n        if \'change_password\' not in auth.settings.actions_disabled:\n            response.write(\'\\n              <a class="dropdown-item" href="\', escape=False)\n            response.write(URL(\'default\',\'user/change_password\'))\n            response.write(\'">\', escape=False)\n            response.write(T(\'Change Password\'))\n            response.write(\'</a>\\n              \', escape=False)\n            pass\n        response.write(\'\\n              <a class="dropdown-item" href="\', escape=False)\n        response.write(URL(\'default\',\'user/logout\'))\n        response.write(\'">\', escape=False)\n        response.write(T(\'Logout\'))\n        response.write(\'</a>\\n              \', escape=False)\n    else:\n        response.write(\'\\n              <a class="dropdown-item" href="\', escape=False)\n        response.write(URL(\'default\',\'user/login\'))\n        response.write(\'">\', escape=False)\n        response.write(T(\'Login\'))\n        response.write(\'</a>\\n              \', escape=False)\n        if \'register\' not in auth.settings.actions_disabled:\n            response.write(\'\\n              <a class="dropdown-item" href="\', escape=False)\n            response.write(URL(\'default\',\'user/register\'))\n            response.write(\'">\', escape=False)\n            response.write(T(\'Sign up\'))\n            response.write(\'</a>\\n              \', escape=False)\n            pass\n        response.write(\'\\n              \', escape=False)\n        if \'retrieve_password\' not in auth.settings.actions_disabled:\n            response.write(\'\\n              <a class="dropdown-item" href="\', escape=False)\n            response.write(URL(\'default\',\'user/retrieve_password\'))\n            response.write(\'">\', escape=False)\n            response.write(T(\'Lost Password\'))\n            response.write(\'</a>\\n              \', escape=False)\n            pass\n        response.write(\'\\n              \', escape=False)\n        pass\n    response.write(\'\\n            </div>\\n          </li>\\n        </ul>\\n        \', escape=False)\n    pass\nresponse.write(\'\\n      </div>\\n    </nav>\\n\\n    <!-- Masthead ===================================== -->\\n    \', escape=False)\nresponse.write(\'\\n    \', escape=False)\nresponse.write(\'\\n    <!-- Main ========================================= -->\\n    <!-- Begin page content -->\\n    <div class="container-fluid main-container">\\n      \', escape=False)\nresponse.write(\'\\n\', escape=False)\ndebito=0\nresponse.write(\'\\n\', escape=False)\ntotaldebito=0\nresponse.write(\'\\n                  \', escape=False)\ntotal=0\nresponse.write(\'\\n<h3>\\n    Cheques de \', escape=False)\nresponse.write(pessoa.nome)\nresponse.write(\'\\n</h3>\\n<div class="py-5" >\\n    <div class="container">\\n      <div class="row" id="noprint">\\n        <form class="form-inline col-12">\\n          <a class="btn btn-link col-sm-2" href="\', escape=False)\nresponse.write(URL(\'pessoa\',\'index\'))\nresponse.write(\'" style="color:#3b5998">\\n            <i class="fa fa-fw fa-1x py-1 fa-arrow-left"></i> Voltar </a>\\n          <a class="btn btn-link col-sm-3" href="\', escape=False)\nresponse.write(URL(\'cheque\',\'cadastrar\', args=pessoa.id))\nresponse.write(\'" style="color:#3b5998" ><i class="fa fa-fw fa-1x py-1 fa-plus-square"></i> Cadastrar Cheque Novo</a>\\n          <a class="btn btn-link col-sm-3" href="\', escape=False)\nresponse.write(URL(\'cheque\',\'alterar_pessoa\', args=pessoa.id))\nresponse.write(\'" style="color:#3b5998" ><i class="fa fa-fw fa-1x py-1 fa-cog"></i> Alterar Dados do Pai do cheque</a>\\n          <div class="input-group col-sm-6">\\n          </div>\\n        </form>\\n        </div>\\n          <br>\\n      <div class="row">\\n        <div class="col-md-12">\\n          <ul class="border border-dark"><hr>\\n            <li><b>Nome:</b> \', escape=False)\nresponse.write(pessoa.nome)\nresponse.write(\'</li><hr>\\n            <li><b>Telefone:</b> \', escape=False)\nresponse.write(pessoa.telefone)\nresponse.write(\'</li><hr>\\n            <li><b>Descri\\xc3\\xa7\\xc3\\xa3o:</b> \', escape=False)\nresponse.write(pessoa.descricao)\nresponse.write(\'</li><hr>\\n          </ul>\\n        </div>\\n      </div>\\n      <div class="row">\\n        <div class="col-md-12">\\n            \\n          <div class="table-responsive">\\n            <table class="table table-striped table-borderless">\\n              <thead>\\n                <tr>\\n                  <th scope="col">Data</th>\\n                  <th scope="col">Nome Cheque</th>\\n                  <th scope="col">Valor</th>\\n                  <th scope="col">D\\xc3\\xa9bito</th>\\n                  <th scope="col" class="text-center" id="noprint">Op\\xc3\\xa7\\xc3\\xb5es</th>\\n                </tr>\\n              </thead>\\n              <tbody>\\n                  \', escape=False)\nfor row in rows:\n    response.write(\'\\n                  \', escape=False)\n    if row.debito>0:\n        response.write(\'\\n                <tr>\\n                  <th scope="row">\', escape=False)\n        response.write(("{}/{}/{}".format(row.data_vencimento.day,row.data_vencimento.month,row.data_vencimento.year)))\n        response.write(\'\\n                  </th>\\n                  <td>\', escape=False)\n        response.write(row.nome)\n        response.write(\'</td>\\n                  <td>R$ \', escape=False)\n        response.write("{:,}".format(round(row.valor,1)).replace(",","."))\n        response.write(\'0</td>\\n                    \', escape=False)\n        debito+=row.debito\n        response.write(\'\\n                  <td>R$ \', escape=False)\n        response.write("{:,}".format(round(row.debito,1)).replace(",","."))\n        response.write(\'0</td>\\n                  <td class="text-center" id="noprint"><a class="btn btn-link" href="\', escape=False)\n        response.write(URL(\'acesso_recebimentos\', args=row.id))\n        response.write(\'" style="color:#3b5998" ><i class="fa fa-fw fa-1x py-1 text-center fa-cog"></i> </a></td>\\n                </tr>\\n                  \', escape=False)\n        totaldebito+=row.debito\n        response.write(\'\\n                  \', escape=False)\n        total+=row.valor\n        response.write(\'\\n                  \', escape=False)\n        alif row.debito==0:\n            response.write(\'\\n                  \', escape=False)\n        else:\n            response.write(\'\\n                   <tr>\\n                  <th scope="row">\', escape=False)\n            response.write(("{}/{}/{}".format(row.data_vencimento.day,row.data_vencimento.month,row.data_vencimento.year)))\n            response.write(\'\\n                  </th>\\n                  <td>\', escape=False)\n            response.write(row.nome)\n            response.write(\'</td>\\n                  <td>R$ \', escape=False)\n            response.write("{:,}".format(round(row.valor,1)).replace(",","."))\n            response.write(\'0</td>\\n                    \', escape=False)\n            debito+=row.debito\n            response.write(\'\\n                  <td>R$ \', escape=False)\n            response.write("{:,}".format(round(row.debito,1)).replace(",","."))\n            response.write(\'0</td>\\n                  <td class="text-center" id="noprint"><a class="btn btn-link" href="\', escape=False)\n            response.write(URL(\'acesso_recebimentos\', args=row.id))\n            response.write(\'" style="color:#ff1a1a" ><i class="fa fa-fw fa-1x py-1 text-center fa-cog"></i> </a></td>\\n                </tr>\\n                  \', escape=False)\n            pass\n        response.write(\'\\n                  \', escape=False)\n        pass\n    response.write(\'\\n                  <tr>\\n                      <td></td>\\n                      <td>Total - ></td>\\n                      <th>R$ \', escape=False)\n    response.write("{:,}".format(round(total,1)).replace(",","."))\n    response.write(\'0</th>\\n                      <th>R$ \', escape=False)\n    response.write("{:,}".format(round(totaldebito,1)).replace(",","."))\n    response.write(\'0</th>\\n                      <td></td>\\n                      <td></td>\\n                  </tr>\\n              </tbody>\\n            </table>\\n          </div>\\n        </div>\\n      </div>\\n    </div>\\n  </div>\\n\\n\', escape=False)\n    pessoa.total=total\n    response.write(\'\\n\', escape=False)\n    pessoa.debito=debito\n    response.write(\'\\n\', escape=False)\n    pessoa.update_record()\n    response.write(\'\\n\', escape=False)\n    response.write(\'\\n      \', escape=False)\n    response.write(response.toolbar() if response.show_toolbar else \'\')\n    response.write(\'\\n    </div>\\n\\n    \', escape=False)\n    response.write(\' <!-- this is default footer -->\\n    <footer class="footer container-fluid">\\n      <div class="row">\\n        <div class="col-md-12">\\n          <div class="copyright pull-left">\', escape=False)\n    response.write(T(\'Copyright\'))\n    response.write(\' &#169; \', escape=False)\n    response.write(request.now.year)\n    response.write(\'</div>\\n          <div id="poweredBy" class="pull-right">\\n            <a href="#">(88)98112-6816</a>\\n          </div>\\n        </div>\\n      </div>\\n    </footer>\\n    \', escape=False)\n    response.write(\'\\n    <!-- The javascript =============================== -->\\n    <script src="\', escape=False)\n    response.write(URL(\'static\',\'js/bootstrap.bundle.min.js\'))\n    response.write(\'"></script>\\n    <script src="\', escape=False)\n    response.write(URL(\'static\',\'js/web2py-bootstrap4.js\'))\n    response.write(\'"></script>\\n    \', escape=False)\n    response.write(\'\\n    \', escape=False)\n    if response.google_analytics_id:\n        response.write(\'\\n    <!-- Analytics ==================================== -->\\n    <script src="\', escape=False)\n        response.write(URL(\'static\',\'js/analytics.min.js\'))\n        response.write(\'"></script>\\n    <script type="text/javascript">\\n      analytics.initialize({\\n      \\\'Google Analytics\\\':{trackingId:\\\'\', escape=False)\n        response.write(response.google_analytics_id)\n        response.write("\'}\\n      });\\n    </script>\\n    ", escape=False)\n        pass\n    response.write(\'\\n  </body>\\n</html>\\n\', escape=False)'
p7
sS'snapshot'
p8
(dp9
sS'traceback'
p10
S'None\n'
p11
s.